target datalayout = "e-m:e-p270:32:32-p271:32:32-p272:64:64-i64:64-i128:128-f80:128-n8:16:32:64-S128"
target triple = "x86_64-unknown-linux-gnu"

@cursor_timer = internal global ptr null, align 8

; Function Attrs: nounwind sspstrong uwtable
define internal ptr @timer_new_full(ptr noundef %timer_list_group, i32 noundef %type, i32 noundef %scale, i32 noundef %attributes, ptr noundef %cb, ptr noundef %opaque) #0 {
entry:
  %timer_list_group.addr = alloca ptr, align 8
  %type.addr = alloca i32, align 4
  %scale.addr = alloca i32, align 4
  %attributes.addr = alloca i32, align 4
  %cb.addr = alloca ptr, align 8
  %opaque.addr = alloca ptr, align 8
  %ts = alloca ptr, align 8
  store ptr %timer_list_group, ptr %timer_list_group.addr, align 8
  store i32 %type, ptr %type.addr, align 4
  store i32 %scale, ptr %scale.addr, align 4
  store i32 %attributes, ptr %attributes.addr, align 4
  store ptr %cb, ptr %cb.addr, align 8
  store ptr %opaque, ptr %opaque.addr, align 8
  %call = call noalias ptr @g_malloc0_n(i64 noundef 1, i64 noundef 48) #8
  store ptr %call, ptr %ts, align 8
  %0 = load ptr, ptr %ts, align 8
  %1 = load ptr, ptr %timer_list_group.addr, align 8
  %2 = load i32, ptr %type.addr, align 4
  %3 = load i32, ptr %scale.addr, align 4
  %4 = load i32, ptr %attributes.addr, align 4
  %5 = load ptr, ptr %cb.addr, align 8
  %6 = load ptr, ptr %opaque.addr, align 8
  call void @timer_init_full(ptr noundef %0, ptr noundef %1, i32 noundef %2, i32 noundef %3, i32 noundef %4, ptr noundef %5, ptr noundef %6)
  %7 = load ptr, ptr %ts, align 8
  ret ptr %7
}

; Function Attrs: nounwind sspstrong uwtable
define internal ptr @timer_new(i32 noundef %type, i32 noundef %scale, ptr noundef %cb, ptr noundef %opaque) #0 {
entry:
  %type.addr = alloca i32, align 4
  %scale.addr = alloca i32, align 4
  %cb.addr = alloca ptr, align 8
  %opaque.addr = alloca ptr, align 8
  store i32 %type, ptr %type.addr, align 4
  store i32 %scale, ptr %scale.addr, align 4
  store ptr %cb, ptr %cb.addr, align 8
  store ptr %opaque, ptr %opaque.addr, align 8
  %0 = load i32, ptr %type.addr, align 4
  %1 = load i32, ptr %scale.addr, align 4
  %2 = load ptr, ptr %cb.addr, align 8
  %3 = load ptr, ptr %opaque.addr, align 8
  %call = call ptr @timer_new_full(ptr noundef null, i32 noundef %0, i32 noundef %1, i32 noundef 0, ptr noundef %2, ptr noundef %3)
  ret ptr %call
}

; Function Attrs: nounwind sspstrong uwtable
define internal ptr @timer_new_ms(i32 noundef %type, ptr noundef %cb, ptr noundef %opaque) #0 {
entry:
  %type.addr = alloca i32, align 4
  %cb.addr = alloca ptr, align 8
  %opaque.addr = alloca ptr, align 8
  store i32 %type, ptr %type.addr, align 4
  store ptr %cb, ptr %cb.addr, align 8
  store ptr %opaque, ptr %opaque.addr, align 8
  %0 = load i32, ptr %type.addr, align 4
  %1 = load ptr, ptr %cb.addr, align 8
  %2 = load ptr, ptr %opaque.addr, align 8
  %call = call ptr @timer_new(i32 noundef %0, i32 noundef 1000000, ptr noundef %1, ptr noundef %2)
  ret ptr %call
}

; Function Attrs: nounwind sspstrong uwtable
define internal void @qemu_text_console_class_init(ptr noundef %oc, ptr noundef %data) #0 {
entry:
  %oc.addr = alloca ptr, align 8
  %data.addr = alloca ptr, align 8
  store ptr %oc, ptr %oc.addr, align 8
  store ptr %data, ptr %data.addr, align 8
  %0 = load ptr, ptr @cursor_timer, align 8
  %tobool = icmp ne ptr %0, null
  br i1 %tobool, label %if.end, label %if.then

if.then:                                          ; preds = %entry
  %call = call ptr @timer_new_ms(i32 noundef 0, ptr noundef @cursor_timer_cb, ptr noundef null)
  store ptr %call, ptr @cursor_timer, align 8
  br label %if.end

if.end:                                           ; preds = %if.then, %entry
  ret void
}