; Function Attrs: nounwind sspstrong uwtable
define internal void @qemu_text_console_class_init(ptr readnone captures(none) %oc, ptr readnone captures(none) %data) #0 {
entry:
  %0 = load ptr, ptr @cursor_timer, align 8
  %tobool.not = icmp eq ptr %0, null
  br i1 %tobool.not, label %if.then, label %if.end

if.then:                                          ; preds = %entry
  %call.i.i.i = tail call noalias dereferenceable_or_null(48) ptr @g_malloc0_n(i64 noundef 1, i64 noundef 48) #13
  tail call void @timer_init_full(ptr noundef %call.i.i.i, ptr noundef null, i32 noundef 0, i32 noundef 1000000, i32 noundef 0, ptr noundef nonnull @cursor_timer_cb, ptr noundef null) #12
  store ptr %call.i.i.i, ptr @cursor_timer, align 8
  br label %if.end

if.end:                                           ; preds = %if.then, %entry
  ret void
}